; Function Attrs: nounwind uwtable
define ptr @l_Lean_Meta_IndPredBelow_mkContext_mkHeader___lambda__1(ptr noundef %0, ptr noundef %1, ptr noundef %2, ptr noundef %3, ptr noundef %4, ptr noundef %5, ptr noundef %6, ptr noundef %7) #0 {
  %9 = tail call ptr @l_Lean_Meta_IndPredBelow_mkContext_mkIndValConst(ptr noundef %0)
  %10 = tail call ptr @l_Lean_mkAppN(ptr noundef %9, ptr noundef %1) #6
  %11 = tail call ptr @l_Lean_mkArrow(ptr noundef %10, ptr noundef %2, ptr noundef %5, ptr noundef %6, ptr noundef %7) #6
  %12 = getelementptr inbounds nuw i8, ptr %11, i64 8
  %13 = load ptr, ptr %12, align 8, !tbaa !4
  %14 = ptrtoint ptr %13 to i64
  %15 = and i64 %14, 1
  %.not = icmp eq i64 %15, 0
  br i1 %.not, label %16, label %lean_inc.exit41

16:                                               ; preds = %8
  %.val.i = load i32, ptr %13, align 4, !tbaa !12
  %17 = icmp sgt i32 %.val.i, 0
  br i1 %17, label %18, label %20, !prof !11

18:                                               ; preds = %16
  %19 = add nuw i32 %.val.i, 1
  store i32 %19, ptr %13, align 4, !tbaa !12
  br label %lean_inc.exit41

20:                                               ; preds = %16
  %.not.i44 = icmp eq i32 %.val.i, 0
  br i1 %.not.i44, label %lean_inc.exit41, label %21

21:                                               ; preds = %20
  tail call void @lean_inc_ref_cold(ptr noundef nonnull %13) #6
  br label %lean_inc.exit41

lean_inc.exit41:                                  ; preds = %21, %20, %18, %8
  %22 = getelementptr inbounds nuw i8, ptr %11, i64 16
  %23 = load ptr, ptr %22, align 8, !tbaa !4
  %24 = ptrtoint ptr %23 to i64
  %25 = and i64 %24, 1
  %.not51 = icmp eq i64 %25, 0
  br i1 %.not51, label %26, label %lean_inc.exit40

26:                                               ; preds = %lean_inc.exit41
  %.val.i45 = load i32, ptr %23, align 4, !tbaa !12
  %27 = icmp sgt i32 %.val.i45, 0
  br i1 %27, label %28, label %30, !prof !11

28:                                               ; preds = %26
  %29 = add nuw i32 %.val.i45, 1
  store i32 %29, ptr %23, align 4, !tbaa !12
  br label %lean_inc.exit40

30:                                               ; preds = %26
  %.not.i46 = icmp eq i32 %.val.i45, 0
  br i1 %.not.i46, label %lean_inc.exit40, label %31

31:                                               ; preds = %30
  tail call void @lean_inc_ref_cold(ptr noundef nonnull %23) #6
  br label %lean_inc.exit40

lean_inc.exit40:                                  ; preds = %31, %30, %28, %lean_inc.exit41
  %32 = ptrtoint ptr %11 to i64
  %33 = and i64 %32, 1
  %.not52 = icmp eq i64 %33, 0
  br i1 %.not52, label %34, label %lean_dec.exit39

34:                                               ; preds = %lean_inc.exit40
  %35 = load i32, ptr %11, align 4, !tbaa !12
  %36 = icmp sgt i32 %35, 1
  br i1 %36, label %37, label %39, !prof !11

37:                                               ; preds = %34
  %38 = add nsw i32 %35, -1
  store i32 %38, ptr %11, align 4, !tbaa !12
  br label %lean_dec.exit39

39:                                               ; preds = %34
  %.not.i = icmp eq i32 %35, 0
  br i1 %.not.i, label %lean_dec.exit39, label %40

40:                                               ; preds = %39
  tail call void @lean_dec_ref_cold(ptr noundef nonnull %11) #6
  br label %lean_dec.exit39

lean_dec.exit39:                                  ; preds = %40, %39, %37, %lean_inc.exit40
  %41 = getelementptr i8, ptr %1, i64 8
  %.val = load i64, ptr %41, align 8, !tbaa !8
  %42 = ptrtoint ptr %1 to i64
  %43 = and i64 %42, 1
  %.not53 = icmp eq i64 %43, 0
  br i1 %.not53, label %44, label %lean_inc.exit

44:                                               ; preds = %lean_dec.exit39
  %.val.i48 = load i32, ptr %1, align 4, !tbaa !12
  %45 = icmp sgt i32 %.val.i48, 0
  br i1 %45, label %46, label %48, !prof !11

46:                                               ; preds = %44
  %47 = add nuw i32 %.val.i48, 1
  store i32 %47, ptr %1, align 4, !tbaa !12
  br label %lean_inc.exit

48:                                               ; preds = %44
  %.not.i49 = icmp eq i32 %.val.i48, 0
  br i1 %.not.i49, label %lean_inc.exit, label %49

49:                                               ; preds = %48
  tail call void @lean_inc_ref_cold(ptr noundef nonnull %1) #6
  br label %lean_inc.exit

lean_inc.exit:                                    ; preds = %49, %48, %46, %lean_dec.exit39
  %50 = tail call ptr @l_Array_mapMUnsafe_map___at_Lean_Meta_IndPredBelow_mkContext_mkHeader___spec__1(i64 noundef %.val, i64 noundef 0, ptr noundef nonnull %1)
  tail call void @lean_inc_heartbeat() #6
  %51 = tail call noalias ptr @mi_malloc_small(i64 noundef 64) #6
  %52 = icmp eq ptr %51, null
  br i1 %52, label %53, label %lean_alloc_closure.exit

53:                                               ; preds = %lean_inc.exit
  tail call void @lean_internal_panic_out_of_memory() #7
  unreachable

lean_alloc_closure.exit:                          ; preds = %lean_inc.exit
  %54 = getelementptr inbounds nuw i8, ptr %51, i64 4
  store i32 1, ptr %51, align 4, !tbaa !12
  store i32 -184549312, ptr %54, align 4
  %55 = getelementptr inbounds nuw i8, ptr %51, i64 8
  store ptr @l_Lean_Meta_mkForallFVars___boxed, ptr %55, align 8, !tbaa !4
  %56 = getelementptr inbounds nuw i8, ptr %51, i64 16
  store i16 10, ptr %56, align 8, !tbaa !15
  %57 = getelementptr inbounds nuw i8, ptr %51, i64 18
  store i16 5, ptr %57, align 2, !tbaa !15
  %58 = getelementptr inbounds nuw i8, ptr %51, i64 24
  store ptr %1, ptr %58, align 8, !tbaa !4
  %59 = getelementptr inbounds nuw i8, ptr %51, i64 32
  store ptr %13, ptr %59, align 8, !tbaa !4
  %60 = getelementptr inbounds nuw i8, ptr %51, i64 40
  store ptr inttoptr (i64 1 to ptr), ptr %60, align 8, !tbaa !4
  %61 = getelementptr inbounds nuw i8, ptr %51, i64 48
  store ptr inttoptr (i64 3 to ptr), ptr %61, align 8, !tbaa !4
  %62 = getelementptr inbounds nuw i8, ptr %51, i64 56
  store ptr inttoptr (i64 3 to ptr), ptr %62, align 8, !tbaa !4
  %63 = tail call ptr @l_Lean_Meta_withNewBinderInfos___at_Lean_Meta_withInstImplicitAsImplict___spec__3___rarg(ptr noundef %50, ptr noundef nonnull %51, ptr noundef %3, ptr noundef %4, ptr noundef %5, ptr noundef %6, ptr noundef %23) #6
  %64 = ptrtoint ptr %50 to i64
  %65 = and i64 %64, 1
  %.not54 = icmp eq i64 %65, 0
  br i1 %.not54, label %66, label %lean_dec.exit

66:                                               ; preds = %lean_alloc_closure.exit
  %67 = load i32, ptr %50, align 4, !tbaa !12
  %68 = icmp sgt i32 %67, 1
  br i1 %68, label %69, label %71, !prof !11

69:                                               ; preds = %66
  %70 = add nsw i32 %67, -1
  store i32 %70, ptr %50, align 4, !tbaa !12
  br label %lean_dec.exit

71:                                               ; preds = %66
  %.not.i42 = icmp eq i32 %67, 0
  br i1 %.not.i42, label %lean_dec.exit, label %72

72:                                               ; preds = %71
  tail call void @lean_dec_ref_cold(ptr noundef nonnull %50) #6
  br label %lean_dec.exit

lean_dec.exit:                                    ; preds = %72, %71, %69, %lean_alloc_closure.exit
  ret ptr %63
}